target datalayout = "e-m:e-p270:32:32-p271:32:32-p272:64:64-i64:64-i128:128-f80:128-n8:16:32:64-S128"
target triple = "x86_64-pc-linux-gnu"

%struct.DdNode = type { i32, i32, ptr, %union.anon, i64 }
%union.anon = type { %struct.DdChildren }
%struct.DdChildren = type { ptr, ptr }

; Function Attrs: nounwind uwtable
define ptr @cuddAddRoundOffRecur(ptr noundef %0, ptr noundef %1, double noundef %2) #0 {
  %4 = alloca ptr, align 8
  %5 = alloca ptr, align 8
  %6 = alloca ptr, align 8
  %7 = alloca double, align 8
  %8 = alloca ptr, align 8
  %9 = alloca ptr, align 8
  %10 = alloca ptr, align 8
  %11 = alloca ptr, align 8
  %12 = alloca ptr, align 8
  %13 = alloca double, align 8
  %14 = alloca ptr, align 8
  %15 = alloca i32, align 4
  store ptr %0, ptr %5, align 8, !tbaa !3
  store ptr %1, ptr %6, align 8, !tbaa !8
  store double %2, ptr %7, align 8, !tbaa !33
  call void @llvm.lifetime.start.p0(i64 8, ptr %8) #5
  call void @llvm.lifetime.start.p0(i64 8, ptr %9) #5
  call void @llvm.lifetime.start.p0(i64 8, ptr %10) #5
  call void @llvm.lifetime.start.p0(i64 8, ptr %11) #5
  call void @llvm.lifetime.start.p0(i64 8, ptr %12) #5
  call void @llvm.lifetime.start.p0(i64 8, ptr %13) #5
  call void @llvm.lifetime.start.p0(i64 8, ptr %14) #5
  %16 = load ptr, ptr %6, align 8, !tbaa !8
  %17 = getelementptr inbounds nuw %struct.DdNode, ptr %16, i32 0, i32 0
  %18 = load i32, ptr %17, align 8, !tbaa !29
  %19 = icmp eq i32 %18, 2147483647
  br i1 %19, label %20, label %33

20:                                               ; preds = %3
  %21 = load ptr, ptr %6, align 8, !tbaa !8
  %22 = getelementptr inbounds nuw %struct.DdNode, ptr %21, i32 0, i32 3
  %23 = load double, ptr %22, align 8, !tbaa !30
  %24 = load double, ptr %7, align 8, !tbaa !33
  %25 = fmul double %23, %24
  %26 = call double @llvm.ceil.f64(double %25)
  %27 = load double, ptr %7, align 8, !tbaa !33
  %28 = fdiv double %26, %27
  store double %28, ptr %13, align 8, !tbaa !33
  %29 = load ptr, ptr %5, align 8, !tbaa !3
  %30 = load double, ptr %13, align 8, !tbaa !33
  %31 = call ptr @cuddUniqueConst(ptr noundef %29, double noundef %30)
  store ptr %31, ptr %8, align 8, !tbaa !8
  %32 = load ptr, ptr %8, align 8, !tbaa !8
  store ptr %32, ptr %4, align 8
  store i32 1, ptr %15, align 4
  br label %125

33:                                               ; preds = %3
  store ptr @Cudd_addRoundOff, ptr %14, align 8, !tbaa !35
  %34 = load ptr, ptr %5, align 8, !tbaa !3
  %35 = load ptr, ptr %14, align 8, !tbaa !35
  %36 = load ptr, ptr %6, align 8, !tbaa !8
  %37 = call ptr @cuddCacheLookup1(ptr noundef %34, ptr noundef %35, ptr noundef %36)
  store ptr %37, ptr %8, align 8, !tbaa !8
  %38 = load ptr, ptr %8, align 8, !tbaa !8
  %39 = icmp ne ptr %38, null
  br i1 %39, label %40, label %42

40:                                               ; preds = %33
  %41 = load ptr, ptr %8, align 8, !tbaa !8
  store ptr %41, ptr %4, align 8
  store i32 1, ptr %15, align 4
  br label %125

42:                                               ; preds = %33
  %43 = load ptr, ptr %6, align 8, !tbaa !8
  %44 = getelementptr inbounds nuw %struct.DdNode, ptr %43, i32 0, i32 3
  %45 = getelementptr inbounds nuw %struct.DdChildren, ptr %44, i32 0, i32 0
  %46 = load ptr, ptr %45, align 8, !tbaa !30
  store ptr %46, ptr %9, align 8, !tbaa !8
  %47 = load ptr, ptr %6, align 8, !tbaa !8
  %48 = getelementptr inbounds nuw %struct.DdNode, ptr %47, i32 0, i32 3
  %49 = getelementptr inbounds nuw %struct.DdChildren, ptr %48, i32 0, i32 1
  %50 = load ptr, ptr %49, align 8, !tbaa !30
  store ptr %50, ptr %10, align 8, !tbaa !8
  %51 = load ptr, ptr %5, align 8, !tbaa !3
  %52 = load ptr, ptr %9, align 8, !tbaa !8
  %53 = load double, ptr %7, align 8, !tbaa !33
  %54 = call ptr @cuddAddRoundOffRecur(ptr noundef %51, ptr noundef %52, double noundef %53)
  store ptr %54, ptr %11, align 8, !tbaa !8
  %55 = load ptr, ptr %11, align 8, !tbaa !8
  %56 = icmp eq ptr %55, null
  br i1 %56, label %57, label %58

57:                                               ; preds = %42
  store ptr null, ptr %4, align 8
  store i32 1, ptr %15, align 4
  br label %125

58:                                               ; preds = %42
  %59 = load ptr, ptr %11, align 8, !tbaa !8
  %60 = ptrtoint ptr %59 to i64
  %61 = and i64 %60, -2
  %62 = inttoptr i64 %61 to ptr
  %63 = getelementptr inbounds nuw %struct.DdNode, ptr %62, i32 0, i32 1
  %64 = load i32, ptr %63, align 4, !tbaa !31
  %65 = add i32 %64, 1
  store i32 %65, ptr %63, align 4, !tbaa !31
  %66 = load ptr, ptr %5, align 8, !tbaa !3
  %67 = load ptr, ptr %10, align 8, !tbaa !8
  %68 = load double, ptr %7, align 8, !tbaa !33
  %69 = call ptr @cuddAddRoundOffRecur(ptr noundef %66, ptr noundef %67, double noundef %68)
  store ptr %69, ptr %12, align 8, !tbaa !8
  %70 = load ptr, ptr %12, align 8, !tbaa !8
  %71 = icmp eq ptr %70, null
  br i1 %71, label %72, label %75

72:                                               ; preds = %58
  %73 = load ptr, ptr %5, align 8, !tbaa !3
  %74 = load ptr, ptr %11, align 8, !tbaa !8
  call void @Cudd_RecursiveDeref(ptr noundef %73, ptr noundef %74)
  store ptr null, ptr %4, align 8
  store i32 1, ptr %15, align 4
  br label %125

75:                                               ; preds = %58
  %76 = load ptr, ptr %12, align 8, !tbaa !8
  %77 = ptrtoint ptr %76 to i64
  %78 = and i64 %77, -2
  %79 = inttoptr i64 %78 to ptr
  %80 = getelementptr inbounds nuw %struct.DdNode, ptr %79, i32 0, i32 1
  %81 = load i32, ptr %80, align 4, !tbaa !31
  %82 = add i32 %81, 1
  store i32 %82, ptr %80, align 4, !tbaa !31
  %83 = load ptr, ptr %11, align 8, !tbaa !8
  %84 = load ptr, ptr %12, align 8, !tbaa !8
  %85 = icmp eq ptr %83, %84
  br i1 %85, label %86, label %88

86:                                               ; preds = %75
  %87 = load ptr, ptr %11, align 8, !tbaa !8
  br label %96

88:                                               ; preds = %75
  %89 = load ptr, ptr %5, align 8, !tbaa !3
  %90 = load ptr, ptr %6, align 8, !tbaa !8
  %91 = getelementptr inbounds nuw %struct.DdNode, ptr %90, i32 0, i32 0
  %92 = load i32, ptr %91, align 8, !tbaa !29
  %93 = load ptr, ptr %11, align 8, !tbaa !8
  %94 = load ptr, ptr %12, align 8, !tbaa !8
  %95 = call ptr @cuddUniqueInter(ptr noundef %89, i32 noundef %92, ptr noundef %93, ptr noundef %94)
  br label %96

96:                                               ; preds = %88, %86
  %97 = phi ptr [ %87, %86 ], [ %95, %88 ]
  store ptr %97, ptr %8, align 8, !tbaa !8
  %98 = load ptr, ptr %8, align 8, !tbaa !8
  %99 = icmp eq ptr %98, null
  br i1 %99, label %100, label %105

100:                                              ; preds = %96
  %101 = load ptr, ptr %5, align 8, !tbaa !3
  %102 = load ptr, ptr %11, align 8, !tbaa !8
  call void @Cudd_RecursiveDeref(ptr noundef %101, ptr noundef %102)
  %103 = load ptr, ptr %5, align 8, !tbaa !3
  %104 = load ptr, ptr %12, align 8, !tbaa !8
  call void @Cudd_RecursiveDeref(ptr noundef %103, ptr noundef %104)
  store ptr null, ptr %4, align 8
  store i32 1, ptr %15, align 4
  br label %125

105:                                              ; preds = %96
  %106 = load ptr, ptr %11, align 8, !tbaa !8
  %107 = ptrtoint ptr %106 to i64
  %108 = and i64 %107, -2
  %109 = inttoptr i64 %108 to ptr
  %110 = getelementptr inbounds nuw %struct.DdNode, ptr %109, i32 0, i32 1
  %111 = load i32, ptr %110, align 4, !tbaa !31
  %112 = add i32 %111, -1
  store i32 %112, ptr %110, align 4, !tbaa !31
  %113 = load ptr, ptr %12, align 8, !tbaa !8
  %114 = ptrtoint ptr %113 to i64
  %115 = and i64 %114, -2
  %116 = inttoptr i64 %115 to ptr
  %117 = getelementptr inbounds nuw %struct.DdNode, ptr %116, i32 0, i32 1
  %118 = load i32, ptr %117, align 4, !tbaa !31
  %119 = add i32 %118, -1
  store i32 %119, ptr %117, align 4, !tbaa !31
  %120 = load ptr, ptr %5, align 8, !tbaa !3
  %121 = load ptr, ptr %14, align 8, !tbaa !35
  %122 = load ptr, ptr %6, align 8, !tbaa !8
  %123 = load ptr, ptr %8, align 8, !tbaa !8
  call void @cuddCacheInsert1(ptr noundef %120, ptr noundef %121, ptr noundef %122, ptr noundef %123)
  %124 = load ptr, ptr %8, align 8, !tbaa !8
  store ptr %124, ptr %4, align 8
  store i32 1, ptr %15, align 4
  br label %125

125:                                              ; preds = %105, %100, %72, %57, %40, %20
  call void @llvm.lifetime.end.p0(i64 8, ptr %14) #5
  call void @llvm.lifetime.end.p0(i64 8, ptr %13) #5
  call void @llvm.lifetime.end.p0(i64 8, ptr %12) #5
  call void @llvm.lifetime.end.p0(i64 8, ptr %11) #5
  call void @llvm.lifetime.end.p0(i64 8, ptr %10) #5
  call void @llvm.lifetime.end.p0(i64 8, ptr %9) #5
  call void @llvm.lifetime.end.p0(i64 8, ptr %8) #5
  %126 = load ptr, ptr %4, align 8
  ret ptr %126
}