; Function Attrs: nounwind uwtable
define ptr @cuddAddRoundOffRecur(ptr noundef %0, ptr noundef %1, double noundef %2) local_unnamed_addr #0 {
  %4 = load i32, ptr %1, align 8, !tbaa !26
  %5 = icmp eq i32 %4, 2147483647
  br i1 %5, label %6, label %13

6:                                                ; preds = %3
  %7 = getelementptr inbounds nuw i8, ptr %1, i64 16
  %8 = load double, ptr %7, align 8, !tbaa !27
  %9 = fmul double %2, %8
  %10 = tail call double @llvm.ceil.f64(double %9)
  %11 = fdiv double %10, %2
  %12 = tail call ptr @cuddUniqueConst(ptr noundef %0, double noundef %11) #4
  br label %50

13:                                               ; preds = %3
  %14 = tail call ptr @cuddCacheLookup1(ptr noundef %0, ptr noundef nonnull @Cudd_addRoundOff, ptr noundef nonnull %1) #4
  %.not = icmp eq ptr %14, null
  br i1 %.not, label %15, label %50

15:                                               ; preds = %13
  %16 = getelementptr inbounds nuw i8, ptr %1, i64 16
  %17 = load ptr, ptr %16, align 8, !tbaa !27
  %18 = getelementptr inbounds nuw i8, ptr %1, i64 24
  %19 = load ptr, ptr %18, align 8, !tbaa !27
  %20 = tail call ptr @cuddAddRoundOffRecur(ptr noundef %0, ptr noundef %17, double noundef %2)
  %21 = icmp eq ptr %20, null
  br i1 %21, label %50, label %22

22:                                               ; preds = %15
  %23 = ptrtoint ptr %20 to i64
  %24 = and i64 %23, -2
  %25 = inttoptr i64 %24 to ptr
  %26 = getelementptr inbounds nuw i8, ptr %25, i64 4
  %27 = load i32, ptr %26, align 4, !tbaa !28
  %28 = add i32 %27, 1
  store i32 %28, ptr %26, align 4, !tbaa !28
  %29 = tail call ptr @cuddAddRoundOffRecur(ptr noundef %0, ptr noundef %19, double noundef %2)
  %30 = icmp eq ptr %29, null
  br i1 %30, label %31, label %32

31:                                               ; preds = %22
  tail call void @Cudd_RecursiveDeref(ptr noundef %0, ptr noundef nonnull %20) #4
  br label %50

32:                                               ; preds = %22
  %33 = ptrtoint ptr %29 to i64
  %34 = and i64 %33, -2
  %35 = inttoptr i64 %34 to ptr
  %36 = getelementptr inbounds nuw i8, ptr %35, i64 4
  %37 = load i32, ptr %36, align 4, !tbaa !28
  %38 = add i32 %37, 1
  store i32 %38, ptr %36, align 4, !tbaa !28
  %39 = icmp eq ptr %20, %29
  br i1 %39, label %.thread, label %40

40:                                               ; preds = %32
  %41 = load i32, ptr %1, align 8, !tbaa !26
  %42 = tail call ptr @cuddUniqueInter(ptr noundef %0, i32 noundef %41, ptr noundef nonnull %20, ptr noundef nonnull %29) #4
  %43 = icmp eq ptr %42, null
  br i1 %43, label %44, label %.thread

44:                                               ; preds = %40
  tail call void @Cudd_RecursiveDeref(ptr noundef %0, ptr noundef nonnull %20) #4
  tail call void @Cudd_RecursiveDeref(ptr noundef %0, ptr noundef nonnull %29) #4
  br label %50

.thread:                                          ; preds = %32, %40
  %45 = phi ptr [ %42, %40 ], [ %20, %32 ]
  %46 = load i32, ptr %26, align 4, !tbaa !28
  %47 = add i32 %46, -1
  store i32 %47, ptr %26, align 4, !tbaa !28
  %48 = load i32, ptr %36, align 4, !tbaa !28
  %49 = add i32 %48, -1
  store i32 %49, ptr %36, align 4, !tbaa !28
  tail call void @cuddCacheInsert1(ptr noundef %0, ptr noundef nonnull @Cudd_addRoundOff, ptr noundef nonnull %1, ptr noundef nonnull %45) #4
  br label %50

50:                                               ; preds = %15, %13, %.thread, %44, %31, %6
  %.0 = phi ptr [ %12, %6 ], [ null, %31 ], [ null, %44 ], [ %45, %.thread ], [ %14, %13 ], [ null, %15 ]
  ret ptr %.0
}